target datalayout = "e-m:e-p270:32:32-p271:32:32-p272:64:64-i64:64-i128:128-f80:128-n8:16:32:64-S128"
target triple = "x86_64-pc-linux-gnu"

%struct.anon = type { ptr }
%struct.JNINativeInterface_ = type { ptr, ptr, ptr, ptr, ptr, ptr, ptr, ptr, ptr, ptr, ptr, ptr, ptr, ptr, ptr, ptr, ptr, ptr, ptr, ptr, ptr, ptr, ptr, ptr, ptr, ptr, ptr, ptr, ptr, ptr, ptr, ptr, ptr, ptr, ptr, ptr, ptr, ptr, ptr, ptr, ptr, ptr, ptr, ptr, ptr, ptr, ptr, ptr, ptr, ptr, ptr, ptr, ptr, ptr, ptr, ptr, ptr, ptr, ptr, ptr, ptr, ptr, ptr, ptr, ptr, ptr, ptr, ptr, ptr, ptr, ptr, ptr, ptr, ptr, ptr, ptr, ptr, ptr, ptr, ptr, ptr, ptr, ptr, ptr, ptr, ptr, ptr, ptr, ptr, ptr, ptr, ptr, ptr, ptr, ptr, ptr, ptr, ptr, ptr, ptr, ptr, ptr, ptr, ptr, ptr, ptr, ptr, ptr, ptr, ptr, ptr, ptr, ptr, ptr, ptr, ptr, ptr, ptr, ptr, ptr, ptr, ptr, ptr, ptr, ptr, ptr, ptr, ptr, ptr, ptr, ptr, ptr, ptr, ptr, ptr, ptr, ptr, ptr, ptr, ptr, ptr, ptr, ptr, ptr, ptr, ptr, ptr, ptr, ptr, ptr, ptr, ptr, ptr, ptr, ptr, ptr, ptr, ptr, ptr, ptr, ptr, ptr, ptr, ptr, ptr, ptr, ptr, ptr, ptr, ptr, ptr, ptr, ptr, ptr, ptr, ptr, ptr, ptr, ptr, ptr, ptr, ptr, ptr, ptr, ptr, ptr, ptr, ptr, ptr, ptr, ptr, ptr, ptr, ptr, ptr, ptr, ptr, ptr, ptr, ptr, ptr, ptr, ptr, ptr, ptr, ptr, ptr, ptr, ptr, ptr, ptr, ptr, ptr, ptr, ptr, ptr, ptr, ptr, ptr, ptr, ptr, ptr, ptr, ptr, ptr, ptr, ptr, ptr, ptr, ptr, ptr, ptr, ptr, ptr, ptr }
%struct.stat = type { i64, i64, i64, i32, i32, i32, i32, i64, i64, i64, i64, %struct.timespec, %struct.timespec, %struct.timespec, [3 x i64] }
%struct.timespec = type { i64, i64 }

@ids = internal global %struct.anon zeroinitializer, align 8

; Function Attrs: nounwind uwtable
define i64 @Java_java_io_UnixFileSystem_getLastModifiedTime0(ptr noundef %0, ptr noundef %1, ptr noundef %2) #0 {
  %4 = alloca ptr, align 8
  %5 = alloca ptr, align 8
  %6 = alloca ptr, align 8
  %7 = alloca i64, align 8
  %8 = alloca ptr, align 8
  %9 = alloca ptr, align 8
  %10 = alloca %struct.stat, align 8
  store ptr %0, ptr %4, align 8
  store ptr %1, ptr %5, align 8
  store ptr %2, ptr %6, align 8
  store i64 0, ptr %7, align 8
  %11 = load ptr, ptr %6, align 8
  %12 = icmp eq ptr %11, null
  br i1 %12, label %13, label %14

13:                                               ; preds = %3
  br label %23

14:                                               ; preds = %3
  %15 = load ptr, ptr %4, align 8
  %16 = load ptr, ptr %15, align 8
  %17 = getelementptr inbounds %struct.JNINativeInterface_, ptr %16, i32 0, i32 95
  %18 = load ptr, ptr %17, align 8
  %19 = load ptr, ptr %4, align 8
  %20 = load ptr, ptr %6, align 8
  %21 = load ptr, ptr @ids, align 8
  %22 = call ptr %18(ptr noundef %19, ptr noundef %20, ptr noundef %21)
  br label %23

23:                                               ; preds = %14, %13
  %24 = phi ptr [ null, %13 ], [ %22, %14 ]
  store ptr %24, ptr %9, align 8
  %25 = load ptr, ptr %9, align 8
  %26 = icmp eq ptr %25, null
  br i1 %26, label %27, label %29

27:                                               ; preds = %23
  %28 = load ptr, ptr %4, align 8
  call void @JNU_ThrowNullPointerException(ptr noundef %28, ptr noundef null)
  br label %55

29:                                               ; preds = %23
  %30 = load ptr, ptr %4, align 8
  %31 = load ptr, ptr %9, align 8
  %32 = call ptr @JNU_GetStringPlatformChars(ptr noundef %30, ptr noundef %31, ptr noundef null)
  store ptr %32, ptr %8, align 8
  %33 = load ptr, ptr %8, align 8
  %34 = icmp eq ptr %33, null
  br i1 %34, label %35, label %36

35:                                               ; preds = %29
  br label %55

36:                                               ; preds = %29
  %37 = load ptr, ptr %8, align 8
  %38 = call i32 @stat64(ptr noundef %37, ptr noundef %10) #6
  %39 = icmp eq i32 %38, 0
  br i1 %39, label %40, label %51

40:                                               ; preds = %36
  %41 = getelementptr inbounds %struct.stat, ptr %10, i32 0, i32 12
  %42 = getelementptr inbounds %struct.timespec, ptr %41, i32 0, i32 0
  %43 = load i64, ptr %42, align 8
  %44 = mul nsw i64 %43, 1000
  store i64 %44, ptr %7, align 8
  %45 = getelementptr inbounds %struct.stat, ptr %10, i32 0, i32 12
  %46 = getelementptr inbounds %struct.timespec, ptr %45, i32 0, i32 1
  %47 = load i64, ptr %46, align 8
  %48 = sdiv i64 %47, 1000000
  %49 = load i64, ptr %7, align 8
  %50 = add nsw i64 %49, %48
  store i64 %50, ptr %7, align 8
  br label %51

51:                                               ; preds = %40, %36
  %52 = load ptr, ptr %4, align 8
  %53 = load ptr, ptr %9, align 8
  %54 = load ptr, ptr %8, align 8
  call void @JNU_ReleaseStringPlatformChars(ptr noundef %52, ptr noundef %53, ptr noundef %54)
  br label %55

55:                                               ; preds = %51, %35, %27
  %56 = load i64, ptr %7, align 8
  ret i64 %56
}