; Function Attrs: nounwind uwtable
define i64 @Java_java_io_UnixFileSystem_getLastModifiedTime0(ptr noundef %0, ptr nocapture noundef readnone %1, ptr noundef %2) local_unnamed_addr #0 {
  %4 = alloca %struct.stat, align 8
  %5 = icmp eq ptr %2, null
  br i1 %5, label %.thread, label %6

6:                                                ; preds = %3
  %7 = load ptr, ptr %0, align 8
  %8 = getelementptr inbounds i8, ptr %7, i64 760
  %9 = load ptr, ptr %8, align 8
  %10 = load ptr, ptr @ids.0, align 8
  %11 = tail call ptr %9(ptr noundef nonnull %0, ptr noundef nonnull %2, ptr noundef %10) #7
  %12 = icmp eq ptr %11, null
  br i1 %12, label %.thread, label %13

.thread:                                          ; preds = %3, %6
  tail call void @JNU_ThrowNullPointerException(ptr noundef %0, ptr noundef null) #7
  br label %28

13:                                               ; preds = %6
  %14 = tail call ptr @JNU_GetStringPlatformChars(ptr noundef nonnull %0, ptr noundef nonnull %11, ptr noundef null) #7
  %15 = icmp eq ptr %14, null
  br i1 %15, label %28, label %16

16:                                               ; preds = %13
  %17 = call i32 @stat64(ptr noundef nonnull %14, ptr noundef nonnull %4) #7
  %18 = icmp eq i32 %17, 0
  br i1 %18, label %19, label %27

19:                                               ; preds = %16
  %20 = getelementptr inbounds i8, ptr %4, i64 88
  %21 = load i64, ptr %20, align 8
  %22 = mul nsw i64 %21, 1000
  %23 = getelementptr inbounds i8, ptr %4, i64 96
  %24 = load i64, ptr %23, align 8
  %25 = sdiv i64 %24, 1000000
  %26 = add nsw i64 %25, %22
  br label %27

27:                                               ; preds = %19, %16
  %.0 = phi i64 [ %26, %19 ], [ 0, %16 ]
  tail call void @JNU_ReleaseStringPlatformChars(ptr noundef nonnull %0, ptr noundef nonnull %11, ptr noundef nonnull %14) #7
  br label %28

28:                                               ; preds = %13, %27, %.thread
  %.1 = phi i64 [ 0, %.thread ], [ 0, %13 ], [ %.0, %27 ]
  ret i64 %.1
}